target datalayout = "e-m:e-p270:32:32-p271:32:32-p272:64:64-i64:64-i128:128-f80:128-n8:16:32:64-S128"
target triple = "x86_64-pc-linux-gnu"

%"class.open3d::core::Dtype" = type { i32, i64, [16 x i8] }
%"class.open3d::core::TensorList" = type <{ %"class.open3d::core::SizeVector", i64, i64, %"class.open3d::core::Tensor", i8, [7 x i8] }>
%"class.open3d::core::SizeVector" = type { %"class.open3d::core::SmallVector" }
%"class.open3d::core::SmallVector" = type { %"class.open3d::core::SmallVectorImpl", %"struct.open3d::core::SmallVectorStorage" }
%"class.open3d::core::SmallVectorImpl" = type { %"class.open3d::core::SmallVectorTemplateBase" }
%"class.open3d::core::SmallVectorTemplateBase" = type { %"class.open3d::core::SmallVectorTemplateCommon" }
%"class.open3d::core::SmallVectorTemplateCommon" = type { %"class.open3d::core::SmallVectorBase" }
%"class.open3d::core::SmallVectorBase" = type { ptr, i32, i32 }
%"struct.open3d::core::SmallVectorStorage" = type { [32 x i8] }
%"class.open3d::core::Tensor" = type { %"class.open3d::core::IsDevice", %"class.open3d::core::SizeVector", %"class.open3d::core::SizeVector", ptr, %"class.open3d::core::Dtype", %"class.std::shared_ptr" }
%"class.open3d::core::IsDevice" = type { ptr }
%"class.std::shared_ptr" = type { %"class.std::__shared_ptr" }
%"class.std::__shared_ptr" = type { ptr, %"class.std::__shared_count" }
%"class.std::__shared_count" = type { ptr }
%"class.open3d::core::Device" = type { i32, i32 }

; Function Attrs: mustprogress ssp uwtable
define linkonce_odr void @_ZNK6open3d4core6Tensor5CloneEv(ptr dead_on_unwind noalias writable sret(%"class.open3d::core::Tensor") align 8 %0, ptr noundef nonnull align 8 dereferenceable(160) %1) #0 comdat align 2 {
  %3 = alloca ptr, align 8
  %4 = alloca ptr, align 8
  %5 = alloca %"class.open3d::core::Device", align 4
  store ptr %0, ptr %3, align 8
  store ptr %1, ptr %4, align 8, !tbaa !4
  %6 = load ptr, ptr %4, align 8
  call void @llvm.lifetime.start.p0(i64 8, ptr %5) #28
  %7 = load ptr, ptr %6, align 8, !tbaa !19
  %8 = getelementptr inbounds ptr, ptr %7, i64 2
  %9 = load ptr, ptr %8, align 8
  %10 = call i64 %9(ptr noundef nonnull align 8 dereferenceable(160) %6)
  store i64 %10, ptr %5, align 4
  call void @_ZNK6open3d4core6Tensor2ToERKNS0_6DeviceEb(ptr dead_on_unwind writable sret(%"class.open3d::core::Tensor") align 8 %0, ptr noundef nonnull align 8 dereferenceable(160) %6, ptr noundef nonnull align 4 dereferenceable(8) %5, i1 noundef zeroext true)
  call void @llvm.lifetime.end.p0(i64 8, ptr %5) #28
  ret void
}

; Function Attrs: mustprogress ssp uwtable
define linkonce_odr noundef nonnull align 8 dereferenceable(225) ptr @_ZNR6open3d4core10TensorListaSERKS1_(ptr noundef nonnull align 8 dereferenceable(225) %0, ptr noundef nonnull align 8 dereferenceable(225) %1) #0 comdat align 2 {
  %3 = alloca ptr, align 8
  %4 = alloca ptr, align 8
  store ptr %0, ptr %3, align 8, !tbaa !35
  store ptr %1, ptr %4, align 8, !tbaa !35
  %5 = load ptr, ptr %3, align 8
  %6 = getelementptr inbounds nuw %"class.open3d::core::TensorList", ptr %5, i32 0, i32 0
  %7 = load ptr, ptr %4, align 8, !tbaa !35
  %8 = getelementptr inbounds nuw %"class.open3d::core::TensorList", ptr %7, i32 0, i32 0
  %9 = call noundef nonnull align 8 dereferenceable(48) ptr @_ZN6open3d4core10SizeVectoraSERKS1_(ptr noundef nonnull align 8 dereferenceable(48) %6, ptr noundef nonnull align 8 dereferenceable(48) %8)
  %10 = getelementptr inbounds nuw %"class.open3d::core::TensorList", ptr %5, i32 0, i32 1
  %11 = load ptr, ptr %4, align 8
  %12 = getelementptr inbounds nuw %"class.open3d::core::TensorList", ptr %11, i32 0, i32 1
  call void @llvm.memcpy.p0.p0.i64(ptr align 8 %10, ptr align 8 %12, i64 16, i1 false)
  %13 = getelementptr inbounds nuw %"class.open3d::core::TensorList", ptr %5, i32 0, i32 3
  %14 = load ptr, ptr %4, align 8, !tbaa !35
  %15 = getelementptr inbounds nuw %"class.open3d::core::TensorList", ptr %14, i32 0, i32 3
  %16 = call noundef nonnull align 8 dereferenceable(160) ptr @_ZNR6open3d4core6TensoraSERKS1_(ptr noundef nonnull align 8 dereferenceable(160) %13, ptr noundef nonnull align 8 dereferenceable(160) %15)
  %17 = load ptr, ptr %4, align 8, !tbaa !35
  %18 = getelementptr inbounds nuw %"class.open3d::core::TensorList", ptr %17, i32 0, i32 4
  %19 = load i8, ptr %18, align 8, !tbaa !55, !range !13, !noundef !14
  %20 = trunc i8 %19 to i1
  %21 = getelementptr inbounds nuw %"class.open3d::core::TensorList", ptr %5, i32 0, i32 4
  %22 = zext i1 %20 to i8
  store i8 %22, ptr %21, align 8, !tbaa !55
  ret ptr %5
}

; Function Attrs: mustprogress ssp uwtable
define void @_ZN6open3d4core10TensorList8CopyFromERKS1_(ptr noundef nonnull align 8 dereferenceable(225) %0, ptr noundef nonnull align 8 dereferenceable(225) %1) #0 align 2 personality ptr @__gxx_personality_v0 {
  %3 = alloca ptr, align 8
  %4 = alloca ptr, align 8
  %5 = alloca %"class.open3d::core::Tensor", align 8
  %6 = alloca ptr, align 8
  %7 = alloca i32, align 4
  store ptr %0, ptr %3, align 8, !tbaa !35
  store ptr %1, ptr %4, align 8, !tbaa !35
  %8 = load ptr, ptr %3, align 8
  %9 = load ptr, ptr %4, align 8, !tbaa !35
  %10 = call noundef nonnull align 8 dereferenceable(225) ptr @_ZNR6open3d4core10TensorListaSERKS1_(ptr noundef nonnull align 8 dereferenceable(225) %8, ptr noundef nonnull align 8 dereferenceable(225) %9)
  call void @llvm.lifetime.start.p0(i64 160, ptr %5) #28
  %11 = load ptr, ptr %4, align 8, !tbaa !35
  %12 = getelementptr inbounds nuw %"class.open3d::core::TensorList", ptr %11, i32 0, i32 3
  call void @_ZNK6open3d4core6Tensor5CloneEv(ptr dead_on_unwind writable sret(%"class.open3d::core::Tensor") align 8 %5, ptr noundef nonnull align 8 dereferenceable(160) %12)
  %13 = getelementptr inbounds nuw %"class.open3d::core::TensorList", ptr %8, i32 0, i32 3
  %14 = invoke noundef nonnull align 8 dereferenceable(160) ptr @_ZNR6open3d4core6TensoraSEOS1_(ptr noundef nonnull align 8 dereferenceable(160) %13, ptr noundef nonnull align 8 dereferenceable(160) %5)
          to label %15 unwind label %17

15:                                               ; preds = %2
  call void @_ZN6open3d4core6TensorD2Ev(ptr noundef nonnull align 8 dereferenceable(160) %5) #28
  call void @llvm.lifetime.end.p0(i64 160, ptr %5) #28
  %16 = getelementptr inbounds nuw %"class.open3d::core::TensorList", ptr %8, i32 0, i32 4
  store i8 1, ptr %16, align 8, !tbaa !55
  ret void

17:                                               ; preds = %2
  %18 = landingpad { ptr, i32 }
          cleanup
  %19 = extractvalue { ptr, i32 } %18, 0
  store ptr %19, ptr %6, align 8
  %20 = extractvalue { ptr, i32 } %18, 1
  store i32 %20, ptr %7, align 4
  call void @_ZN6open3d4core6TensorD2Ev(ptr noundef nonnull align 8 dereferenceable(160) %5) #28
  call void @llvm.lifetime.end.p0(i64 160, ptr %5) #28
  br label %21

21:                                               ; preds = %17
  %22 = load ptr, ptr %6, align 8
  %23 = load i32, ptr %7, align 4
  %24 = insertvalue { ptr, i32 } poison, ptr %22, 0
  %25 = insertvalue { ptr, i32 } %24, i32 %23, 1
  resume { ptr, i32 } %25
}