; Function Attrs: mustprogress ssp uwtable
define void @_ZN6open3d4core10TensorList8CopyFromERKS1_(ptr noundef nonnull align 8 dereferenceable(225) %0, ptr noundef nonnull align 8 dereferenceable(225) %1) local_unnamed_addr #0 align 2 personality ptr @__gxx_personality_v0 {
  %3 = alloca %"class.open3d::core::Device", align 8
  %4 = alloca %"class.open3d::core::Tensor", align 8
  %5 = tail call noundef nonnull align 8 dereferenceable(48) ptr @_ZN6open3d4core10SizeVectoraSERKS1_(ptr noundef nonnull align 8 dereferenceable(225) %0, ptr noundef nonnull align 8 dereferenceable(225) %1)
  %6 = getelementptr inbounds nuw i8, ptr %0, i64 48
  %7 = getelementptr inbounds nuw i8, ptr %1, i64 48
  tail call void @llvm.memcpy.p0.p0.i64(ptr noundef nonnull align 8 dereferenceable(16) %6, ptr noundef nonnull align 8 dereferenceable(16) %7, i64 16, i1 false)
  %8 = getelementptr inbounds nuw i8, ptr %0, i64 64
  %9 = getelementptr inbounds nuw i8, ptr %1, i64 64
  %10 = tail call noundef nonnull align 8 dereferenceable(160) ptr @_ZNR6open3d4core6TensoraSERKS1_(ptr noundef nonnull align 8 dereferenceable(160) %8, ptr noundef nonnull align 8 dereferenceable(160) %9)
  %11 = getelementptr inbounds nuw i8, ptr %1, i64 224
  %12 = load i8, ptr %11, align 8, !tbaa !57, !range !58, !noundef !59
  %13 = getelementptr inbounds nuw i8, ptr %0, i64 224
  store i8 %12, ptr %13, align 8, !tbaa !57
  call void @llvm.lifetime.start.p0(i64 160, ptr nonnull %4) #29
  call void @llvm.lifetime.start.p0(i64 8, ptr nonnull %3) #29, !noalias !60
  %14 = load ptr, ptr %9, align 8, !tbaa !24, !noalias !60
  %15 = getelementptr inbounds nuw i8, ptr %14, i64 16
  %16 = load ptr, ptr %15, align 8, !noalias !60
  %17 = tail call i64 %16(ptr noundef nonnull align 8 dereferenceable(160) %9), !noalias !60
  store i64 %17, ptr %3, align 8, !noalias !60
  call void @_ZNK6open3d4core6Tensor2ToERKNS0_6DeviceEb(ptr dead_on_unwind nonnull writable sret(%"class.open3d::core::Tensor") align 8 %4, ptr noundef nonnull align 8 dereferenceable(160) %9, ptr noundef nonnull align 4 dereferenceable(8) %3, i1 noundef zeroext true)
  call void @llvm.lifetime.end.p0(i64 8, ptr nonnull %3) #29, !noalias !60
  %18 = invoke noundef nonnull align 8 dereferenceable(160) ptr @_ZNR6open3d4core6TensoraSEOS1_(ptr noundef nonnull align 8 dereferenceable(160) %8, ptr noundef nonnull align 8 dereferenceable(160) %4)
          to label %19 unwind label %53

19:                                               ; preds = %2
  store ptr getelementptr inbounds nuw inrange(-16, 24) (i8, ptr @_ZTVN6open3d4core6TensorE, i64 16), ptr %4, align 8, !tbaa !24
  %20 = getelementptr inbounds nuw i8, ptr %4, i64 152
  %21 = load ptr, ptr %20, align 8, !tbaa !26
  %.not.i.i.i = icmp eq ptr %21, null
  br i1 %.not.i.i.i, label %_ZNSt12__shared_ptrIN6open3d4core4BlobELN9__gnu_cxx12_Lock_policyE2EED2Ev.exit.i, label %22

22:                                               ; preds = %19
  %23 = getelementptr inbounds nuw i8, ptr %21, i64 8
  %24 = load atomic i64, ptr %23 acquire, align 8
  %25 = icmp eq i64 %24, 4294967297
  %26 = trunc i64 %24 to i32
  br i1 %25, label %27, label %35

27:                                               ; preds = %22
  store i32 0, ptr %23, align 8, !tbaa !29
  %28 = getelementptr inbounds nuw i8, ptr %21, i64 12
  store i32 0, ptr %28, align 4, !tbaa !31
  %29 = load ptr, ptr %21, align 8, !tbaa !24
  %30 = getelementptr inbounds nuw i8, ptr %29, i64 16
  %31 = load ptr, ptr %30, align 8
  call void %31(ptr noundef nonnull align 8 dereferenceable(16) %21) #29
  %32 = load ptr, ptr %21, align 8, !tbaa !24
  %33 = getelementptr inbounds nuw i8, ptr %32, i64 24
  %34 = load ptr, ptr %33, align 8
  call void %34(ptr noundef nonnull align 8 dereferenceable(16) %21) #29
  br label %_ZNSt12__shared_ptrIN6open3d4core4BlobELN9__gnu_cxx12_Lock_policyE2EED2Ev.exit.i

35:                                               ; preds = %22
  %36 = load i8, ptr @__libc_single_threaded, align 1, !tbaa !23
  %.not.i.i.i.i = icmp eq i8 %36, 0
  br i1 %.not.i.i.i.i, label %39, label %37

37:                                               ; preds = %35
  %38 = add nsw i32 %26, -1
  store i32 %38, ptr %23, align 4, !tbaa !32
  br label %_ZN9__gnu_cxx27__exchange_and_add_dispatchEPii.exit.i.i.i.i

39:                                               ; preds = %35
  %40 = atomicrmw volatile add ptr %23, i32 -1 acq_rel, align 4
  br label %_ZN9__gnu_cxx27__exchange_and_add_dispatchEPii.exit.i.i.i.i

_ZN9__gnu_cxx27__exchange_and_add_dispatchEPii.exit.i.i.i.i: ; preds = %39, %37
  %.0.i.i.i.i.i = phi i32 [ %26, %37 ], [ %40, %39 ]
  %41 = icmp eq i32 %.0.i.i.i.i.i, 1
  br i1 %41, label %42, label %_ZNSt12__shared_ptrIN6open3d4core4BlobELN9__gnu_cxx12_Lock_policyE2EED2Ev.exit.i, !prof !33

42:                                               ; preds = %_ZN9__gnu_cxx27__exchange_and_add_dispatchEPii.exit.i.i.i.i
  call void @_ZNSt16_Sp_counted_baseILN9__gnu_cxx12_Lock_policyE2EE24_M_release_last_use_coldEv(ptr noundef nonnull align 8 dereferenceable(16) %21) #29
  br label %_ZNSt12__shared_ptrIN6open3d4core4BlobELN9__gnu_cxx12_Lock_policyE2EED2Ev.exit.i

_ZNSt12__shared_ptrIN6open3d4core4BlobELN9__gnu_cxx12_Lock_policyE2EED2Ev.exit.i: ; preds = %42, %_ZN9__gnu_cxx27__exchange_and_add_dispatchEPii.exit.i.i.i.i, %27, %19
  %43 = getelementptr inbounds nuw i8, ptr %4, i64 56
  %44 = load ptr, ptr %43, align 8, !tbaa !10
  %45 = getelementptr inbounds nuw i8, ptr %4, i64 72
  %46 = icmp eq ptr %44, %45
  br i1 %46, label %_ZN6open3d4core11SmallVectorIlLj4EED2Ev.exit.i, label %47

47:                                               ; preds = %_ZNSt12__shared_ptrIN6open3d4core4BlobELN9__gnu_cxx12_Lock_policyE2EED2Ev.exit.i
  call void @free(ptr noundef %44) #29
  br label %_ZN6open3d4core11SmallVectorIlLj4EED2Ev.exit.i

_ZN6open3d4core11SmallVectorIlLj4EED2Ev.exit.i:   ; preds = %47, %_ZNSt12__shared_ptrIN6open3d4core4BlobELN9__gnu_cxx12_Lock_policyE2EED2Ev.exit.i
  %48 = getelementptr inbounds nuw i8, ptr %4, i64 8
  %49 = load ptr, ptr %48, align 8, !tbaa !10
  %50 = getelementptr inbounds nuw i8, ptr %4, i64 24
  %51 = icmp eq ptr %49, %50
  br i1 %51, label %_ZN6open3d4core6TensorD2Ev.exit, label %52

52:                                               ; preds = %_ZN6open3d4core11SmallVectorIlLj4EED2Ev.exit.i
  call void @free(ptr noundef %49) #29
  br label %_ZN6open3d4core6TensorD2Ev.exit

_ZN6open3d4core6TensorD2Ev.exit:                  ; preds = %_ZN6open3d4core11SmallVectorIlLj4EED2Ev.exit.i, %52
  call void @llvm.lifetime.end.p0(i64 160, ptr nonnull %4) #29
  store i8 1, ptr %13, align 8, !tbaa !57
  ret void

53:                                               ; preds = %2
  %54 = landingpad { ptr, i32 }
          cleanup
  call void @_ZN6open3d4core6TensorD2Ev(ptr noundef nonnull align 8 dereferenceable(160) %4) #29
  call void @llvm.lifetime.end.p0(i64 160, ptr nonnull %4) #29
  resume { ptr, i32 } %54
}